target datalayout = "e-m:e-p270:32:32-p271:32:32-p272:64:64-i64:64-i128:128-f80:128-n8:16:32:64-S128"
target triple = "x86_64-pc-linux-gnu"

%struct.pm_newline_list_t = type { ptr, i64, i64, ptr }

; Function Attrs: alwaysinline nounwind
define internal ptr @memcpy.inline(ptr noalias nonnull %0, ptr noalias nonnull %1, i64 %2) #3 {
  %4 = alloca ptr, align 8
  %5 = alloca ptr, align 8
  %6 = alloca i64, align 8
  store ptr %0, ptr %4, align 8, !tbaa !7
  store ptr %1, ptr %5, align 8, !tbaa !7
  store i64 %2, ptr %6, align 8, !tbaa !13
  %7 = load ptr, ptr %4, align 8, !tbaa !7
  %8 = load ptr, ptr %5, align 8, !tbaa !7
  %9 = load i64, ptr %6, align 8, !tbaa !13
  %10 = load ptr, ptr %4, align 8, !tbaa !7
  %11 = call i64 @llvm.objectsize.i64.p0(ptr %10, i1 false, i1 true, i1 false)
  %12 = call ptr @__memcpy_chk(ptr noundef %7, ptr noundef %8, i64 noundef %9, i64 noundef %11) #7
  ret ptr %12
}

; Function Attrs: nounwind sspstrong uwtable
define hidden zeroext i1 @pm_newline_list_append(ptr noundef %0, ptr noundef %1) #0 {
  %3 = alloca i1, align 1
  %4 = alloca ptr, align 8
  %5 = alloca ptr, align 8
  %6 = alloca ptr, align 8
  %7 = alloca i32, align 4
  %8 = alloca i64, align 8
  store ptr %0, ptr %4, align 8, !tbaa !7
  store ptr %1, ptr %5, align 8, !tbaa !11
  %9 = load ptr, ptr %4, align 8, !tbaa !7
  %10 = getelementptr inbounds nuw %struct.pm_newline_list_t, ptr %9, i32 0, i32 1
  %11 = load i64, ptr %10, align 8, !tbaa !19
  %12 = load ptr, ptr %4, align 8, !tbaa !7
  %13 = getelementptr inbounds nuw %struct.pm_newline_list_t, ptr %12, i32 0, i32 2
  %14 = load i64, ptr %13, align 8, !tbaa !20
  %15 = icmp eq i64 %11, %14
  br i1 %15, label %16, label %52

16:                                               ; preds = %2
  call void @llvm.lifetime.start.p0(i64 8, ptr %6) #7
  %17 = load ptr, ptr %4, align 8, !tbaa !7
  %18 = getelementptr inbounds nuw %struct.pm_newline_list_t, ptr %17, i32 0, i32 3
  %19 = load ptr, ptr %18, align 8, !tbaa !15
  store ptr %19, ptr %6, align 8, !tbaa !21
  %20 = load ptr, ptr %4, align 8, !tbaa !7
  %21 = getelementptr inbounds nuw %struct.pm_newline_list_t, ptr %20, i32 0, i32 2
  %22 = load i64, ptr %21, align 8, !tbaa !20
  %23 = mul i64 %22, 3
  %24 = udiv i64 %23, 2
  %25 = load ptr, ptr %4, align 8, !tbaa !7
  %26 = getelementptr inbounds nuw %struct.pm_newline_list_t, ptr %25, i32 0, i32 2
  store i64 %24, ptr %26, align 8, !tbaa !20
  %27 = load ptr, ptr %4, align 8, !tbaa !7
  %28 = getelementptr inbounds nuw %struct.pm_newline_list_t, ptr %27, i32 0, i32 2
  %29 = load i64, ptr %28, align 8, !tbaa !20
  %30 = call noalias ptr @calloc(i64 noundef %29, i64 noundef 8) #6
  %31 = load ptr, ptr %4, align 8, !tbaa !7
  %32 = getelementptr inbounds nuw %struct.pm_newline_list_t, ptr %31, i32 0, i32 3
  store ptr %30, ptr %32, align 8, !tbaa !15
  %33 = load ptr, ptr %4, align 8, !tbaa !7
  %34 = getelementptr inbounds nuw %struct.pm_newline_list_t, ptr %33, i32 0, i32 3
  %35 = load ptr, ptr %34, align 8, !tbaa !15
  %36 = icmp eq ptr %35, null
  br i1 %36, label %37, label %38

37:                                               ; preds = %16
  store i1 false, ptr %3, align 1
  store i32 1, ptr %7, align 4
  br label %49

38:                                               ; preds = %16
  %39 = load ptr, ptr %4, align 8, !tbaa !7
  %40 = getelementptr inbounds nuw %struct.pm_newline_list_t, ptr %39, i32 0, i32 3
  %41 = load ptr, ptr %40, align 8, !tbaa !15
  %42 = load ptr, ptr %6, align 8, !tbaa !21
  %43 = load ptr, ptr %4, align 8, !tbaa !7
  %44 = getelementptr inbounds nuw %struct.pm_newline_list_t, ptr %43, i32 0, i32 1
  %45 = load i64, ptr %44, align 8, !tbaa !19
  %46 = mul i64 %45, 8
  %47 = call ptr @memcpy.inline(ptr noundef %41, ptr noundef %42, i64 noundef %46) #7
  %48 = load ptr, ptr %6, align 8, !tbaa !21
  call void @free(ptr noundef %48) #7
  store i32 0, ptr %7, align 4
  br label %49

49:                                               ; preds = %38, %37
  call void @llvm.lifetime.end.p0(i64 8, ptr %6) #7
  %50 = load i32, ptr %7, align 4
  switch i32 %50, label %72 [
    i32 0, label %51
    i32 1, label %70
  ]

51:                                               ; preds = %49
  br label %52

52:                                               ; preds = %51, %2
  call void @llvm.lifetime.start.p0(i64 8, ptr %8) #7
  %53 = load ptr, ptr %5, align 8, !tbaa !11
  %54 = load ptr, ptr %4, align 8, !tbaa !7
  %55 = getelementptr inbounds nuw %struct.pm_newline_list_t, ptr %54, i32 0, i32 0
  %56 = load ptr, ptr %55, align 8, !tbaa !18
  %57 = ptrtoint ptr %53 to i64
  %58 = ptrtoint ptr %56 to i64
  %59 = sub i64 %57, %58
  %60 = add i64 %59, 1
  store i64 %60, ptr %8, align 8, !tbaa !13
  %61 = load i64, ptr %8, align 8, !tbaa !13
  %62 = load ptr, ptr %4, align 8, !tbaa !7
  %63 = getelementptr inbounds nuw %struct.pm_newline_list_t, ptr %62, i32 0, i32 3
  %64 = load ptr, ptr %63, align 8, !tbaa !15
  %65 = load ptr, ptr %4, align 8, !tbaa !7
  %66 = getelementptr inbounds nuw %struct.pm_newline_list_t, ptr %65, i32 0, i32 1
  %67 = load i64, ptr %66, align 8, !tbaa !19
  %68 = add i64 %67, 1
  store i64 %68, ptr %66, align 8, !tbaa !19
  %69 = getelementptr i64, ptr %64, i64 %67
  store i64 %61, ptr %69, align 8, !tbaa !13
  store i1 true, ptr %3, align 1
  store i32 1, ptr %7, align 4
  call void @llvm.lifetime.end.p0(i64 8, ptr %8) #7
  br label %70

70:                                               ; preds = %52, %49
  %71 = load i1, ptr %3, align 1
  ret i1 %71

72:                                               ; preds = %49
  unreachable
}