; Function Attrs: nounwind sspstrong uwtable
define hidden noundef zeroext i1 @pm_newline_list_append(ptr noundef captures(none) %0, ptr noundef %1) local_unnamed_addr #3 {
  %3 = getelementptr inbounds nuw i8, ptr %0, i64 8
  %4 = load i64, ptr %3, align 8, !tbaa !16
  %5 = getelementptr inbounds nuw i8, ptr %0, i64 16
  %6 = load i64, ptr %5, align 8, !tbaa !17
  %7 = icmp eq i64 %4, %6
  br i1 %7, label %8, label %16

8:                                                ; preds = %2
  %9 = getelementptr inbounds nuw i8, ptr %0, i64 24
  %10 = load ptr, ptr %9, align 8, !tbaa !7
  %11 = mul i64 %4, 3
  %12 = lshr i64 %11, 1
  store i64 %12, ptr %5, align 8, !tbaa !17
  %13 = tail call noalias ptr @calloc(i64 noundef %12, i64 noundef 8) #8
  store ptr %13, ptr %9, align 8, !tbaa !7
  %14 = icmp eq ptr %13, null
  br i1 %14, label %27, label %.thread

.thread:                                          ; preds = %8
  %15 = shl i64 %4, 3
  tail call void @llvm.memcpy.p0.p0.i64(ptr noundef nonnull align 1 %13, ptr noundef nonnull align 1 %10, i64 noundef %15, i1 noundef false) #9
  tail call void @free(ptr noundef %10) #9
  %.pre = load i64, ptr %3, align 8, !tbaa !16
  br label %16

16:                                               ; preds = %.thread, %2
  %17 = phi i64 [ %.pre, %.thread ], [ %4, %2 ]
  %18 = load ptr, ptr %0, align 8, !tbaa !15
  %19 = ptrtoint ptr %1 to i64
  %20 = ptrtoint ptr %18 to i64
  %21 = add i64 %19, 1
  %22 = sub i64 %21, %20
  %23 = getelementptr inbounds nuw i8, ptr %0, i64 24
  %24 = load ptr, ptr %23, align 8, !tbaa !7
  %25 = add i64 %17, 1
  store i64 %25, ptr %3, align 8, !tbaa !16
  %26 = getelementptr i64, ptr %24, i64 %17
  store i64 %22, ptr %26, align 8, !tbaa !18
  br label %27

27:                                               ; preds = %8, %16
  %.1 = phi i1 [ true, %16 ], [ false, %8 ]
  ret i1 %.1
}